target datalayout = "e-m:e-p270:32:32-p271:32:32-p272:64:64-i64:64-i128:128-f80:128-n8:16:32:64-S128"
target triple = "x86_64-unknown-linux-gnu"

%struct._SYSTEMTIME = type { i16, i16, i16, i16, i16, i16, i16, i16 }

; Function Attrs: mustprogress uwtable
define dso_local void @_ZN2EA4StdC20DateTimeToSystemTimeERKNS0_8DateTimeER11_SYSTEMTIME(ptr noundef nonnull align 8 dereferenceable(12) %dateTime, ptr noundef nonnull align 2 dereferenceable(16) %time) #0 {
entry:
  %dateTime.addr = alloca ptr, align 8
  %time.addr = alloca ptr, align 8
  store ptr %dateTime, ptr %dateTime.addr, align 8
  store ptr %time, ptr %time.addr, align 8
  %0 = load ptr, ptr %dateTime.addr, align 8
  %call = call noundef i32 @_ZNK2EA4StdC8DateTime12GetParameterENS0_9ParameterE(ptr noundef nonnull align 8 dereferenceable(12) %0, i32 noundef 1)
  %conv = trunc i32 %call to i16
  %1 = load ptr, ptr %time.addr, align 8
  %wYear = getelementptr inbounds %struct._SYSTEMTIME, ptr %1, i32 0, i32 0
  store i16 %conv, ptr %wYear, align 2
  %2 = load ptr, ptr %dateTime.addr, align 8
  %call1 = call noundef i32 @_ZNK2EA4StdC8DateTime12GetParameterENS0_9ParameterE(ptr noundef nonnull align 8 dereferenceable(12) %2, i32 noundef 2)
  %conv2 = trunc i32 %call1 to i16
  %3 = load ptr, ptr %time.addr, align 8
  %wMonth = getelementptr inbounds %struct._SYSTEMTIME, ptr %3, i32 0, i32 1
  store i16 %conv2, ptr %wMonth, align 2
  %4 = load ptr, ptr %dateTime.addr, align 8
  %call3 = call noundef i32 @_ZNK2EA4StdC8DateTime12GetParameterENS0_9ParameterE(ptr noundef nonnull align 8 dereferenceable(12) %4, i32 noundef 7)
  %sub = sub i32 %call3, 1
  %conv4 = trunc i32 %sub to i16
  %5 = load ptr, ptr %time.addr, align 8
  %wDayOfWeek = getelementptr inbounds %struct._SYSTEMTIME, ptr %5, i32 0, i32 2
  store i16 %conv4, ptr %wDayOfWeek, align 2
  %6 = load ptr, ptr %dateTime.addr, align 8
  %call5 = call noundef i32 @_ZNK2EA4StdC8DateTime12GetParameterENS0_9ParameterE(ptr noundef nonnull align 8 dereferenceable(12) %6, i32 noundef 6)
  %conv6 = trunc i32 %call5 to i16
  %7 = load ptr, ptr %time.addr, align 8
  %wDay = getelementptr inbounds %struct._SYSTEMTIME, ptr %7, i32 0, i32 3
  store i16 %conv6, ptr %wDay, align 2
  %8 = load ptr, ptr %dateTime.addr, align 8
  %call7 = call noundef i32 @_ZNK2EA4StdC8DateTime12GetParameterENS0_9ParameterE(ptr noundef nonnull align 8 dereferenceable(12) %8, i32 noundef 8)
  %conv8 = trunc i32 %call7 to i16
  %9 = load ptr, ptr %time.addr, align 8
  %wHour = getelementptr inbounds %struct._SYSTEMTIME, ptr %9, i32 0, i32 4
  store i16 %conv8, ptr %wHour, align 2
  %10 = load ptr, ptr %dateTime.addr, align 8
  %call9 = call noundef i32 @_ZNK2EA4StdC8DateTime12GetParameterENS0_9ParameterE(ptr noundef nonnull align 8 dereferenceable(12) %10, i32 noundef 9)
  %conv10 = trunc i32 %call9 to i16
  %11 = load ptr, ptr %time.addr, align 8
  %wMinute = getelementptr inbounds %struct._SYSTEMTIME, ptr %11, i32 0, i32 5
  store i16 %conv10, ptr %wMinute, align 2
  %12 = load ptr, ptr %dateTime.addr, align 8
  %call11 = call noundef i32 @_ZNK2EA4StdC8DateTime12GetParameterENS0_9ParameterE(ptr noundef nonnull align 8 dereferenceable(12) %12, i32 noundef 10)
  %conv12 = trunc i32 %call11 to i16
  %13 = load ptr, ptr %time.addr, align 8
  %wSecond = getelementptr inbounds %struct._SYSTEMTIME, ptr %13, i32 0, i32 6
  store i16 %conv12, ptr %wSecond, align 2
  %14 = load ptr, ptr %dateTime.addr, align 8
  %call13 = call noundef i32 @_ZNK2EA4StdC8DateTime12GetParameterENS0_9ParameterE(ptr noundef nonnull align 8 dereferenceable(12) %14, i32 noundef 11)
  %div = udiv i32 %call13, 1000000
  %conv14 = trunc i32 %div to i16
  %15 = load ptr, ptr %time.addr, align 8
  %wMilliseconds = getelementptr inbounds %struct._SYSTEMTIME, ptr %15, i32 0, i32 7
  store i16 %conv14, ptr %wMilliseconds, align 2
  ret void
}