; Function Attrs: mustprogress nofree nosync nounwind willreturn memory(argmem: readwrite) uwtable
define dso_local void @_ZN2EA4StdC20DateTimeToSystemTimeERKNS0_8DateTimeER11_SYSTEMTIME(ptr noundef nonnull align 8 dereferenceable(12) %dateTime, ptr noundef nonnull writeonly align 2 captures(none) dereferenceable(16) initializes((0, 16)) %time) local_unnamed_addr #8 {
entry:
  %0 = load i64, ptr %dateTime, align 8
  %div.i = sdiv i64 %0, 86400
  %div2.i = sdiv i64 %0, 31536000
  %sub.i = add nsw i64 %div2.i, -1
  %div3.neg.i = sdiv i64 %sub.i, -4
  %div6.neg.neg.i = sdiv i64 %sub.i, 100
  %div10.neg.i = sdiv i64 %sub.i, -400
  %sub7.neg.i = add nsw i64 %div.i, -1
  %add.neg.i = add nsw i64 %sub7.neg.i, %div3.neg.i
  %sub11.i = add nsw i64 %add.neg.i, %div6.neg.neg.i
  %sub12.i = add nsw i64 %sub11.i, %div10.neg.i
  %div13.i = sdiv i64 %sub12.i, 365
  %conv.i = trunc i64 %div13.i to i16
  %add14.i = add i16 %conv.i, 1
  store i16 %add14.i, ptr %time, align 2
  %call1 = tail call noundef i32 @_ZNK2EA4StdC8DateTime12GetParameterENS0_9ParameterE(ptr noundef nonnull align 8 dereferenceable(12) %dateTime, i32 noundef 2)
  %conv2 = trunc i32 %call1 to i16
  %wMonth = getelementptr inbounds nuw i8, ptr %time, i64 2
  store i16 %conv2, ptr %wMonth, align 2
  %1 = load i64, ptr %dateTime, align 8
  %div65.i = sdiv i64 %1, 86400
  %rem.i = srem i64 %div65.i, 7
  %conv66.i = trunc nsw i64 %rem.i to i16
  %wDayOfWeek = getelementptr inbounds nuw i8, ptr %time, i64 4
  store i16 %conv66.i, ptr %wDayOfWeek, align 2
  %call5 = tail call noundef i32 @_ZNK2EA4StdC8DateTime12GetParameterENS0_9ParameterE(ptr noundef nonnull align 8 dereferenceable(12) %dateTime, i32 noundef 6)
  %conv6 = trunc i32 %call5 to i16
  %wDay = getelementptr inbounds nuw i8, ptr %time, i64 6
  store i16 %conv6, ptr %wDay, align 2
  %2 = load i64, ptr %dateTime, align 8
  %div70.i = sdiv i64 %2, 3600
  %rem71.i = srem i64 %div70.i, 24
  %conv8 = trunc nsw i64 %rem71.i to i16
  %wHour = getelementptr inbounds nuw i8, ptr %time, i64 8
  store i16 %conv8, ptr %wHour, align 2
  %3 = load i64, ptr %dateTime, align 8
  %div75.i = sdiv i64 %3, 60
  %rem76.i = srem i64 %div75.i, 60
  %conv10 = trunc nsw i64 %rem76.i to i16
  %wMinute = getelementptr inbounds nuw i8, ptr %time, i64 10
  store i16 %conv10, ptr %wMinute, align 2
  %4 = load i64, ptr %dateTime, align 8
  %rem80.i = srem i64 %4, 60
  %conv12 = trunc nsw i64 %rem80.i to i16
  %wSecond = getelementptr inbounds nuw i8, ptr %time, i64 12
  store i16 %conv12, ptr %wSecond, align 2
  %mnNanosecond.i = getelementptr inbounds nuw i8, ptr %dateTime, i64 8
  %5 = load i32, ptr %mnNanosecond.i, align 8
  %div = udiv i32 %5, 1000000
  %conv14 = trunc nuw nsw i32 %div to i16
  %wMilliseconds = getelementptr inbounds nuw i8, ptr %time, i64 14
  store i16 %conv14, ptr %wMilliseconds, align 2
  ret void
}